target datalayout = "e-m:e-p270:32:32-p271:32:32-p272:64:64-i64:64-i128:128-f80:128-n8:16:32:64-S128"
target triple = "x86_64-pc-linux-gnu"

%struct.cli_ctx_tag = type { ptr, ptr, ptr, ptr, ptr, ptr, ptr, i64, ptr, i32, i32, ptr, i32, i32, ptr, [16 x i8], ptr, ptr, ptr, ptr, ptr, ptr, %struct.timeval, i8, i8 }
%struct.timeval = type { i64, i64 }
%struct.cl_fmap = type { ptr, ptr, ptr, i64, i64, i64, i64, i8, i8, i8, i64, i64, i64, i64, ptr, ptr, ptr, ptr, ptr, ptr, ptr, i8, [16 x i8], i8, [20 x i8], i8, [32 x i8], ptr, ptr }
%struct.cl_engine = type { i32, i32, i32, [2 x i32], i32, i32, i32, ptr, i32, i64, i32, i32, i64, i64, i32, i32, i32, i32, ptr, ptr, ptr, ptr, ptr, ptr, ptr, ptr, ptr, ptr, ptr, ptr, ptr, ptr, ptr, ptr, ptr, ptr, ptr, i64, ptr, %struct.crtmgr, ptr, ptr, ptr, ptr, ptr, ptr, ptr, ptr, ptr, ptr, ptr, ptr, ptr, ptr, ptr, ptr, ptr, %struct.cli_all_bc, [7 x ptr], [7 x i32], i32, i32, i32, i32, i64, i64, i64, i64, i64, ptr, ptr, ptr, ptr, ptr, ptr, ptr, ptr, ptr, i32, i32, i32, i64, i64, i64, ptr }
%struct.crtmgr = type { ptr, i32 }
%struct.cli_all_bc = type { ptr, i32, ptr, %struct.cli_environment, i32 }
%struct.cli_environment = type { i32, i32, i32, i32, i32, i32, i32, [65 x i8], [65 x i8], [65 x i8], [65 x i8], [65 x i8], [65 x i8], [65 x i8], i8, i8, i8, i8, i8, i8, i8, i8, i8 }
%struct.bz_stream = type { ptr, i32, i32, i32, ptr, i32, i32, i32, ptr, ptr, ptr, ptr }

@.str.169 = private unnamed_addr constant [33 x i8] c"Bzip: DecompressInit failed: %d\0A\00", align 1
@.str.170 = private unnamed_addr constant [38 x i8] c"Bzip: Can't generate temporary file.\0A\00", align 1
@.str.171 = private unnamed_addr constant [42 x i8] c"Bzip: premature end of compressed stream\0A\00", align 1
@.str.172 = private unnamed_addr constant [28 x i8] c"Bzip: decompress error: %d\0A\00", align 1
@.str.173 = private unnamed_addr constant [28 x i8] c"Bzip: Can't write to file.\0A\00", align 1
@.str.174 = private unnamed_addr constant [5 x i8] c"Bzip\00", align 1

; Function Attrs: nounwind uwtable
define internal ptr @fmap_need_off_once(ptr noundef %0, i64 noundef %1, i64 noundef %2) #0 {
  %4 = alloca ptr, align 8
  %5 = alloca i64, align 8
  %6 = alloca i64, align 8
  store ptr %0, ptr %4, align 8
  store i64 %1, ptr %5, align 8
  store i64 %2, ptr %6, align 8
  %7 = load ptr, ptr %4, align 8
  %8 = getelementptr inbounds %struct.cl_fmap, ptr %7, i32 0, i32 15
  %9 = load ptr, ptr %8, align 8
  %10 = load ptr, ptr %4, align 8
  %11 = load i64, ptr %5, align 8
  %12 = load i64, ptr %6, align 8
  %13 = call ptr %9(ptr noundef %10, i64 noundef %11, i64 noundef %12, i32 noundef 0)
  ret ptr %13
}

; Function Attrs: nounwind uwtable
define i32 @cli_magic_scan_desc(i32 noundef %0, ptr noundef %1, ptr noundef %2, ptr noundef %3, i32 noundef %4) #0 {
  %6 = alloca i32, align 4
  %7 = alloca ptr, align 8
  %8 = alloca ptr, align 8
  %9 = alloca ptr, align 8
  %10 = alloca i32, align 4
  store i32 %0, ptr %6, align 4
  store ptr %1, ptr %7, align 8
  store ptr %2, ptr %8, align 8
  store ptr %3, ptr %9, align 8
  store i32 %4, ptr %10, align 4
  %11 = load i32, ptr %6, align 4
  %12 = load ptr, ptr %7, align 8
  %13 = load ptr, ptr %8, align 8
  %14 = load ptr, ptr %9, align 8
  %15 = load i32, ptr %10, align 4
  %16 = call i32 @cli_magic_scan_desc_type(i32 noundef %11, ptr noundef %12, ptr noundef %13, i32 noundef 0, ptr noundef %14, i32 noundef %15)
  ret i32 %16
}

; Function Attrs: nounwind uwtable
define internal ptr @fmap_need_off_once_len(ptr noundef %0, i64 noundef %1, i64 noundef %2, ptr noundef %3) #0 {
  %5 = alloca ptr, align 8
  %6 = alloca ptr, align 8
  %7 = alloca i64, align 8
  %8 = alloca i64, align 8
  %9 = alloca ptr, align 8
  %10 = alloca ptr, align 8
  store ptr %0, ptr %6, align 8
  store i64 %1, ptr %7, align 8
  store i64 %2, ptr %8, align 8
  store ptr %3, ptr %9, align 8
  %11 = load i64, ptr %7, align 8
  %12 = load ptr, ptr %6, align 8
  %13 = getelementptr inbounds %struct.cl_fmap, ptr %12, i32 0, i32 13
  %14 = load i64, ptr %13, align 8
  %15 = icmp uge i64 %11, %14
  br i1 %15, label %16, label %18

16:                                               ; preds = %4
  %17 = load ptr, ptr %9, align 8
  store i64 0, ptr %17, align 8
  store ptr null, ptr %5, align 8
  br label %46

18:                                               ; preds = %4
  %19 = load i64, ptr %8, align 8
  %20 = load ptr, ptr %6, align 8
  %21 = getelementptr inbounds %struct.cl_fmap, ptr %20, i32 0, i32 13
  %22 = load i64, ptr %21, align 8
  %23 = load i64, ptr %7, align 8
  %24 = sub i64 %22, %23
  %25 = icmp ugt i64 %19, %24
  br i1 %25, label %26, label %32

26:                                               ; preds = %18
  %27 = load ptr, ptr %6, align 8
  %28 = getelementptr inbounds %struct.cl_fmap, ptr %27, i32 0, i32 13
  %29 = load i64, ptr %28, align 8
  %30 = load i64, ptr %7, align 8
  %31 = sub i64 %29, %30
  store i64 %31, ptr %8, align 8
  br label %32

32:                                               ; preds = %26, %18
  %33 = load ptr, ptr %6, align 8
  %34 = load i64, ptr %7, align 8
  %35 = load i64, ptr %8, align 8
  %36 = call ptr @fmap_need_off_once(ptr noundef %33, i64 noundef %34, i64 noundef %35)
  store ptr %36, ptr %10, align 8
  %37 = load ptr, ptr %10, align 8
  %38 = icmp ne ptr %37, null
  br i1 %38, label %39, label %41

39:                                               ; preds = %32
  %40 = load i64, ptr %8, align 8
  br label %42

41:                                               ; preds = %32
  br label %42

42:                                               ; preds = %41, %39
  %43 = phi i64 [ %40, %39 ], [ 0, %41 ]
  %44 = load ptr, ptr %9, align 8
  store i64 %43, ptr %44, align 8
  %45 = load ptr, ptr %10, align 8
  store ptr %45, ptr %5, align 8
  br label %46

46:                                               ; preds = %42, %16
  %47 = load ptr, ptr %5, align 8
  ret ptr %47
}

; Function Attrs: nounwind uwtable
define internal i32 @cli_scanbzip(ptr noundef %0) #0 {
  %2 = alloca i32, align 4
  %3 = alloca ptr, align 8
  %4 = alloca i32, align 4
  %5 = alloca i32, align 4
  %6 = alloca i32, align 4
  %7 = alloca i64, align 8
  %8 = alloca ptr, align 8
  %9 = alloca %struct.bz_stream, align 8
  %10 = alloca i64, align 8
  %11 = alloca i64, align 8
  %12 = alloca [8192 x i8], align 16
  store ptr %0, ptr %3, align 8
  store i32 0, ptr %4, align 4
  store i64 0, ptr %7, align 8
  store i64 0, ptr %10, align 8
  call void @llvm.memset.p0.i64(ptr align 8 %9, i8 0, i64 80, i1 false)
  %13 = getelementptr inbounds [8192 x i8], ptr %12, i64 0, i64 0
  %14 = getelementptr inbounds %struct.bz_stream, ptr %9, i32 0, i32 4
  store ptr %13, ptr %14, align 8
  %15 = getelementptr inbounds %struct.bz_stream, ptr %9, i32 0, i32 5
  store i32 8192, ptr %15, align 8
  %16 = call i32 @BZ2_bzDecompressInit(ptr noundef %9, i32 noundef 0, i32 noundef 0)
  store i32 %16, ptr %6, align 4
  %17 = load i32, ptr %6, align 4
  %18 = icmp ne i32 0, %17
  br i1 %18, label %19, label %21

19:                                               ; preds = %1
  %20 = load i32, ptr %6, align 4
  call void (ptr, ...) @cli_dbgmsg(ptr noundef @.str.169, i32 noundef %20)
  store i32 8, ptr %2, align 4
  br label %165

21:                                               ; preds = %1
  %22 = load ptr, ptr %3, align 8
  %23 = getelementptr inbounds %struct.cli_ctx_tag, ptr %22, i32 0, i32 2
  %24 = load ptr, ptr %23, align 8
  %25 = call i32 @cli_gentempfd(ptr noundef %24, ptr noundef %8, ptr noundef %5)
  store i32 %25, ptr %4, align 4
  %26 = icmp ne i32 %25, 0
  br i1 %26, label %27, label %30

27:                                               ; preds = %21
  call void (ptr, ...) @cli_dbgmsg(ptr noundef @.str.170)
  %28 = call i32 @BZ2_bzDecompressEnd(ptr noundef %9)
  %29 = load i32, ptr %4, align 4
  store i32 %29, ptr %2, align 4
  br label %165

30:                                               ; preds = %21
  br label %31

31:                                               ; preds = %118, %30
  %32 = getelementptr inbounds %struct.bz_stream, ptr %9, i32 0, i32 1
  %33 = load i32, ptr %32, align 8
  %34 = icmp ne i32 %33, 0
  br i1 %34, label %53, label %35

35:                                               ; preds = %31
  %36 = load ptr, ptr %3, align 8
  %37 = getelementptr inbounds %struct.cli_ctx_tag, ptr %36, i32 0, i32 14
  %38 = load ptr, ptr %37, align 8
  %39 = load i64, ptr %10, align 8
  %40 = call ptr @fmap_need_off_once_len(ptr noundef %38, i64 noundef %39, i64 noundef 8192, ptr noundef %11)
  %41 = getelementptr inbounds %struct.bz_stream, ptr %9, i32 0, i32 0
  store ptr %40, ptr %41, align 8
  %42 = load i64, ptr %11, align 8
  %43 = trunc i64 %42 to i32
  %44 = getelementptr inbounds %struct.bz_stream, ptr %9, i32 0, i32 1
  store i32 %43, ptr %44, align 8
  %45 = load i64, ptr %11, align 8
  %46 = load i64, ptr %10, align 8
  %47 = add i64 %46, %45
  store i64 %47, ptr %10, align 8
  %48 = getelementptr inbounds %struct.bz_stream, ptr %9, i32 0, i32 1
  %49 = load i32, ptr %48, align 8
  %50 = icmp ne i32 %49, 0
  br i1 %50, label %52, label %51

51:                                               ; preds = %35
  call void (ptr, ...) @cli_dbgmsg(ptr noundef @.str.171)
  br label %121

52:                                               ; preds = %35
  br label %53

53:                                               ; preds = %52, %31
  %54 = call i32 @BZ2_bzDecompress(ptr noundef %9)
  store i32 %54, ptr %6, align 4
  %55 = load i32, ptr %6, align 4
  %56 = icmp ne i32 0, %55
  br i1 %56, label %57, label %62

57:                                               ; preds = %53
  %58 = load i32, ptr %6, align 4
  %59 = icmp ne i32 4, %58
  br i1 %59, label %60, label %62

60:                                               ; preds = %57
  %61 = load i32, ptr %6, align 4
  call void (ptr, ...) @cli_dbgmsg(ptr noundef @.str.172, i32 noundef %61)
  br label %121

62:                                               ; preds = %57, %53
  %63 = getelementptr inbounds %struct.bz_stream, ptr %9, i32 0, i32 5
  %64 = load i32, ptr %63, align 8
  %65 = icmp ne i32 %64, 0
  br i1 %65, label %66, label %69

66:                                               ; preds = %62
  %67 = load i32, ptr %6, align 4
  %68 = icmp eq i32 4, %67
  br i1 %68, label %69, label %117

69:                                               ; preds = %66, %62
  %70 = getelementptr inbounds %struct.bz_stream, ptr %9, i32 0, i32 5
  %71 = load i32, ptr %70, align 8
  %72 = zext i32 %71 to i64
  %73 = sub i64 8192, %72
  %74 = load i64, ptr %7, align 8
  %75 = add i64 %74, %73
  store i64 %75, ptr %7, align 8
  %76 = load i32, ptr %5, align 4
  %77 = getelementptr inbounds [8192 x i8], ptr %12, i64 0, i64 0
  %78 = getelementptr inbounds %struct.bz_stream, ptr %9, i32 0, i32 5
  %79 = load i32, ptr %78, align 8
  %80 = zext i32 %79 to i64
  %81 = sub i64 8192, %80
  %82 = call i64 @cli_writen(i32 noundef %76, ptr noundef %77, i64 noundef %81)
  %83 = getelementptr inbounds %struct.bz_stream, ptr %9, i32 0, i32 5
  %84 = load i32, ptr %83, align 8
  %85 = zext i32 %84 to i64
  %86 = sub i64 8192, %85
  %87 = icmp ne i64 %82, %86
  br i1 %87, label %88, label %107

88:                                               ; preds = %69
  call void (ptr, ...) @cli_dbgmsg(ptr noundef @.str.173)
  %89 = call i32 @BZ2_bzDecompressEnd(ptr noundef %9)
  %90 = load i32, ptr %5, align 4
  %91 = call i32 @close(i32 noundef %90)
  %92 = load ptr, ptr %3, align 8
  %93 = getelementptr inbounds %struct.cli_ctx_tag, ptr %92, i32 0, i32 6
  %94 = load ptr, ptr %93, align 8
  %95 = getelementptr inbounds %struct.cl_engine, ptr %94, i32 0, i32 8
  %96 = load i32, ptr %95, align 8
  %97 = icmp ne i32 %96, 0
  br i1 %97, label %105, label %98

98:                                               ; preds = %88
  %99 = load ptr, ptr %8, align 8
  %100 = call i32 @cli_unlink(ptr noundef %99)
  %101 = icmp ne i32 %100, 0
  br i1 %101, label %102, label %104

102:                                              ; preds = %98
  %103 = load ptr, ptr %8, align 8
  call void @free(ptr noundef %103) #11
  store i32 10, ptr %2, align 4
  br label %165

104:                                              ; preds = %98
  br label %105

105:                                              ; preds = %104, %88
  %106 = load ptr, ptr %8, align 8
  call void @free(ptr noundef %106) #11
  store i32 14, ptr %2, align 4
  br label %165

107:                                              ; preds = %69
  %108 = load ptr, ptr %3, align 8
  %109 = load i64, ptr %7, align 8
  %110 = call i32 @cli_checklimits(ptr noundef @.str.174, ptr noundef %108, i64 noundef %109, i64 noundef 0, i64 noundef 0)
  %111 = icmp ne i32 %110, 0
  br i1 %111, label %112, label %113

112:                                              ; preds = %107
  br label %121

113:                                              ; preds = %107
  %114 = getelementptr inbounds [8192 x i8], ptr %12, i64 0, i64 0
  %115 = getelementptr inbounds %struct.bz_stream, ptr %9, i32 0, i32 4
  store ptr %114, ptr %115, align 8
  %116 = getelementptr inbounds %struct.bz_stream, ptr %9, i32 0, i32 5
  store i32 8192, ptr %116, align 8
  br label %117

117:                                              ; preds = %113, %66
  br label %118

118:                                              ; preds = %117
  %119 = load i32, ptr %6, align 4
  %120 = icmp ne i32 4, %119
  br i1 %120, label %31, label %121

121:                                              ; preds = %118, %112, %60, %51
  %122 = call i32 @BZ2_bzDecompressEnd(ptr noundef %9)
  %123 = load i32, ptr %5, align 4
  %124 = load ptr, ptr %8, align 8
  %125 = load ptr, ptr %3, align 8
  %126 = call i32 @cli_magic_scan_desc(i32 noundef %123, ptr noundef %124, ptr noundef %125, ptr noundef null, i32 noundef 0)
  store i32 %126, ptr %4, align 4
  %127 = icmp ne i32 0, %126
  br i1 %127, label %128, label %147

128:                                              ; preds = %121
  %129 = load i32, ptr %5, align 4
  %130 = call i32 @close(i32 noundef %129)
  %131 = load ptr, ptr %3, align 8
  %132 = getelementptr inbounds %struct.cli_ctx_tag, ptr %131, i32 0, i32 6
  %133 = load ptr, ptr %132, align 8
  %134 = getelementptr inbounds %struct.cl_engine, ptr %133, i32 0, i32 8
  %135 = load i32, ptr %134, align 8
  %136 = icmp ne i32 %135, 0
  br i1 %136, label %144, label %137

137:                                              ; preds = %128
  %138 = load ptr, ptr %8, align 8
  %139 = call i32 @cli_unlink(ptr noundef %138)
  %140 = icmp ne i32 %139, 0
  br i1 %140, label %141, label %143

141:                                              ; preds = %137
  %142 = load ptr, ptr %8, align 8
  call void @free(ptr noundef %142) #11
  store i32 10, ptr %2, align 4
  br label %165

143:                                              ; preds = %137
  br label %144

144:                                              ; preds = %143, %128
  %145 = load ptr, ptr %8, align 8
  call void @free(ptr noundef %145) #11
  %146 = load i32, ptr %4, align 4
  store i32 %146, ptr %2, align 4
  br label %165

147:                                              ; preds = %121
  %148 = load i32, ptr %5, align 4
  %149 = call i32 @close(i32 noundef %148)
  %150 = load ptr, ptr %3, align 8
  %151 = getelementptr inbounds %struct.cli_ctx_tag, ptr %150, i32 0, i32 6
  %152 = load ptr, ptr %151, align 8
  %153 = getelementptr inbounds %struct.cl_engine, ptr %152, i32 0, i32 8
  %154 = load i32, ptr %153, align 8
  %155 = icmp ne i32 %154, 0
  br i1 %155, label %162, label %156

156:                                              ; preds = %147
  %157 = load ptr, ptr %8, align 8
  %158 = call i32 @cli_unlink(ptr noundef %157)
  %159 = icmp ne i32 %158, 0
  br i1 %159, label %160, label %161

160:                                              ; preds = %156
  store i32 10, ptr %4, align 4
  br label %161

161:                                              ; preds = %160, %156
  br label %162

162:                                              ; preds = %161, %147
  %163 = load ptr, ptr %8, align 8
  call void @free(ptr noundef %163) #11
  %164 = load i32, ptr %4, align 4
  store i32 %164, ptr %2, align 4
  br label %165

165:                                              ; preds = %162, %144, %141, %105, %102, %27, %19
  %166 = load i32, ptr %2, align 4
  ret i32 %166
}