; Function Attrs: nounwind uwtable
define internal fastcc i32 @cli_scanbzip(ptr noundef %0) unnamed_addr #0 {
  %2 = alloca i32, align 4
  %3 = alloca ptr, align 8
  %4 = alloca %struct.bz_stream, align 8
  %5 = alloca [8192 x i8], align 16
  call void @llvm.memset.p0.i64(ptr noundef nonnull align 8 dereferenceable(80) %4, i8 0, i64 80, i1 false)
  %6 = getelementptr inbounds nuw i8, ptr %4, i64 24
  store ptr %5, ptr %6, align 8
  %7 = getelementptr inbounds nuw i8, ptr %4, i64 32
  store i32 8192, ptr %7, align 8
  %8 = call i32 @BZ2_bzDecompressInit(ptr noundef nonnull %4, i32 noundef 0, i32 noundef 0) #16
  %.not = icmp eq i32 %8, 0
  br i1 %.not, label %10, label %9

9:                                                ; preds = %1
  call void (ptr, ...) @cli_dbgmsg(ptr noundef nonnull @.str.169, i32 noundef %8) #16
  br label %89

10:                                               ; preds = %1
  %11 = getelementptr inbounds nuw i8, ptr %0, i64 16
  %12 = load ptr, ptr %11, align 8
  %13 = call i32 @cli_gentempfd(ptr noundef %12, ptr noundef nonnull %3, ptr noundef nonnull %2) #16
  %.not33 = icmp eq i32 %13, 0
  br i1 %.not33, label %.preheader, label %16

.preheader:                                       ; preds = %10
  %14 = getelementptr inbounds nuw i8, ptr %4, i64 8
  %15 = getelementptr inbounds nuw i8, ptr %0, i64 96
  br label %18

16:                                               ; preds = %10
  call void (ptr, ...) @cli_dbgmsg(ptr noundef nonnull @.str.170) #16
  %17 = call i32 @BZ2_bzDecompressEnd(ptr noundef nonnull %4) #16
  br label %89

18:                                               ; preds = %.preheader, %64
  %.024 = phi i64 [ %.125, %64 ], [ 0, %.preheader ]
  %.0 = phi i64 [ %.1, %64 ], [ 0, %.preheader ]
  %19 = load i32, ptr %14, align 8
  %.not34 = icmp eq i32 %19, 0
  br i1 %.not34, label %20, label %31

20:                                               ; preds = %18
  %21 = load ptr, ptr %15, align 8
  %22 = getelementptr inbounds nuw i8, ptr %21, i64 88
  %23 = load i64, ptr %22, align 8
  %.not.i = icmp ult i64 %.0, %23
  br i1 %.not.i, label %fmap_need_off_once_len.exit, label %fmap_need_off_once_len.exit.thread

fmap_need_off_once_len.exit.thread:               ; preds = %20
  store ptr null, ptr %4, align 8
  store i32 0, ptr %14, align 8
  br label %.loopexit

fmap_need_off_once_len.exit:                      ; preds = %20
  %24 = sub nuw i64 %23, %.0
  %spec.select.i = call i64 @llvm.umin.i64(i64 %24, i64 8192)
  %25 = getelementptr inbounds nuw i8, ptr %21, i64 104
  %26 = load ptr, ptr %25, align 8
  %27 = call ptr %26(ptr noundef nonnull %21, i64 noundef %.0, i64 noundef %spec.select.i, i32 noundef 0) #16
  %.not20.i = icmp eq ptr %27, null
  %28 = select i1 %.not20.i, i64 0, i64 %spec.select.i
  store ptr %27, ptr %4, align 8
  %29 = trunc nuw nsw i64 %28 to i32
  store i32 %29, ptr %14, align 8
  %30 = add i64 %28, %.0
  %.not35 = icmp eq i64 %28, 0
  br i1 %.not35, label %.loopexit, label %31

.loopexit:                                        ; preds = %fmap_need_off_once_len.exit, %fmap_need_off_once_len.exit.thread
  call void (ptr, ...) @cli_dbgmsg(ptr noundef nonnull @.str.171) #16
  br label %.loopexit49

31:                                               ; preds = %fmap_need_off_once_len.exit, %18
  %.1 = phi i64 [ %.0, %18 ], [ %30, %fmap_need_off_once_len.exit ]
  %32 = call i32 @BZ2_bzDecompress(ptr noundef nonnull %4) #16
  %.not48 = icmp eq i32 %32, 4
  switch i32 %32, label %33 [
    i32 4, label %34
    i32 0, label %34
  ]

33:                                               ; preds = %31
  call void (ptr, ...) @cli_dbgmsg(ptr noundef nonnull @.str.172, i32 noundef %32) #16
  br label %.loopexit49

34:                                               ; preds = %31, %31
  %35 = load i32, ptr %7, align 8
  %36 = icmp eq i32 %35, 0
  %or.cond3 = or i1 %.not48, %36
  br i1 %or.cond3, label %37, label %64

37:                                               ; preds = %34
  %38 = zext i32 %35 to i64
  %39 = sub nsw i64 8192, %38
  %40 = add i64 %39, %.024
  %41 = load i32, ptr %2, align 4
  %42 = call i64 @cli_writen(i32 noundef %41, ptr noundef nonnull %5, i64 noundef %39) #16
  %43 = load i32, ptr %7, align 8
  %44 = zext i32 %43 to i64
  %45 = sub nsw i64 8192, %44
  %.not36 = icmp eq i64 %42, %45
  br i1 %.not36, label %61, label %46

46:                                               ; preds = %37
  call void (ptr, ...) @cli_dbgmsg(ptr noundef nonnull @.str.173) #16
  %47 = call i32 @BZ2_bzDecompressEnd(ptr noundef nonnull %4) #16
  %48 = load i32, ptr %2, align 4
  %49 = call i32 @close(i32 noundef %48) #16
  %50 = getelementptr inbounds nuw i8, ptr %0, i64 48
  %51 = load ptr, ptr %50, align 8
  %52 = getelementptr inbounds nuw i8, ptr %51, i64 40
  %53 = load i32, ptr %52, align 8
  %.not38 = icmp eq i32 %53, 0
  br i1 %.not38, label %54, label %59

54:                                               ; preds = %46
  %55 = load ptr, ptr %3, align 8
  %56 = call i32 @cli_unlink(ptr noundef %55) #16
  %.not39 = icmp eq i32 %56, 0
  br i1 %.not39, label %59, label %57

57:                                               ; preds = %54
  %58 = load ptr, ptr %3, align 8
  call void @free(ptr noundef %58) #16
  br label %89

59:                                               ; preds = %54, %46
  %60 = load ptr, ptr %3, align 8
  call void @free(ptr noundef %60) #16
  br label %89

61:                                               ; preds = %37
  %62 = call i32 @cli_checklimits(ptr noundef nonnull @.str.174, ptr noundef %0, i64 noundef %40, i64 noundef 0, i64 noundef 0) #16
  %.not37 = icmp eq i32 %62, 0
  br i1 %.not37, label %63, label %.loopexit49

63:                                               ; preds = %61
  store ptr %5, ptr %6, align 8
  store i32 8192, ptr %7, align 8
  br label %64

64:                                               ; preds = %63, %34
  %.125 = phi i64 [ %40, %63 ], [ %.024, %34 ]
  br i1 %.not48, label %.loopexit49, label %18

.loopexit49:                                      ; preds = %61, %64, %33, %.loopexit
  %65 = call i32 @BZ2_bzDecompressEnd(ptr noundef nonnull %4) #16
  %66 = load i32, ptr %2, align 4
  %67 = load ptr, ptr %3, align 8
  %68 = call i32 @cli_magic_scan_desc_type(i32 noundef %66, ptr noundef %67, ptr noundef %0, i32 noundef 0, ptr noundef null, i32 noundef 0)
  %.not40 = icmp eq i32 %68, 0
  %69 = load i32, ptr %2, align 4
  %70 = call i32 @close(i32 noundef %69) #16
  %71 = getelementptr inbounds nuw i8, ptr %0, i64 48
  %72 = load ptr, ptr %71, align 8
  %73 = getelementptr inbounds nuw i8, ptr %72, i64 40
  %74 = load i32, ptr %73, align 8
  %.not41 = icmp eq i32 %74, 0
  br i1 %.not40, label %83, label %75

75:                                               ; preds = %.loopexit49
  br i1 %.not41, label %76, label %81

76:                                               ; preds = %75
  %77 = load ptr, ptr %3, align 8
  %78 = call i32 @cli_unlink(ptr noundef %77) #16
  %.not44 = icmp eq i32 %78, 0
  br i1 %.not44, label %81, label %79

79:                                               ; preds = %76
  %80 = load ptr, ptr %3, align 8
  call void @free(ptr noundef %80) #16
  br label %89

81:                                               ; preds = %76, %75
  %82 = load ptr, ptr %3, align 8
  call void @free(ptr noundef %82) #16
  br label %89

83:                                               ; preds = %.loopexit49
  br i1 %.not41, label %84, label %87

84:                                               ; preds = %83
  %85 = load ptr, ptr %3, align 8
  %86 = call i32 @cli_unlink(ptr noundef %85) #16
  %.not42 = icmp eq i32 %86, 0
  %spec.select = select i1 %.not42, i32 0, i32 10
  br label %87

87:                                               ; preds = %84, %83
  %.026 = phi i32 [ 0, %83 ], [ %spec.select, %84 ]
  %88 = load ptr, ptr %3, align 8
  call void @free(ptr noundef %88) #16
  br label %89

89:                                               ; preds = %87, %81, %79, %59, %57, %16, %9
  %.027 = phi i32 [ 8, %9 ], [ %13, %16 ], [ %68, %81 ], [ 10, %79 ], [ %.026, %87 ], [ 14, %59 ], [ 10, %57 ]
  ret i32 %.027
}